; Function Attrs: mustprogress nofree norecurse nosync nounwind willreturn memory(read, inaccessiblemem: none) uwtable
define i64 @OSQPMatrix_get_nz(ptr nocapture noundef readonly %0) local_unnamed_addr #5 {
  %2 = load ptr, ptr %0, align 8
  %3 = getelementptr inbounds i8, ptr %2, i64 16
  %4 = load ptr, ptr %3, align 8
  %5 = getelementptr inbounds i8, ptr %2, i64 8
  %6 = load i64, ptr %5, align 8
  %7 = getelementptr inbounds i64, ptr %4, i64 %6
  %8 = load i64, ptr %7, align 8
  ret i64 %8
}